target datalayout = "e-m:e-p270:32:32-p271:32:32-p272:64:64-i64:64-i128:128-f80:128-n8:16:32:64-S128"
target triple = "x86_64-unknown-linux-gnu"

%"struct.rocksdb::PerfContext" = type <{ %"struct.rocksdb::PerfContextBase", ptr, i8, [7 x i8] }>
%"struct.rocksdb::PerfContextBase" = type { i64, i64, i64, i64, i64, i64, i64, i64, i64, i64, i64, i64, i64, i64, i64, i64, i64, i64, i64, i64, i64, i64, i64, i64, i64, i64, i64, i64, i64, i64, i64, i64, i64, i64, i64, i64, i64, i64, i64, i64, i64, i64, i64, i64, i64, i64, i64, i64, i64, i64, i64, i64, i64, i64, i64, i64, i64, i64, i64, i64, i64, i64, i64, i64, i64, i64, i64, i64, i64, i64, i64, i64, i64, i64, i64, i64, i64, i64, i64, i64, i64, i64, i64, i64, i64, i64, i64, i64, i64, i64, i64, i64, i64, i64, i64, i64, i64, i64, i64, i64, i64 }
%"class.rocksdb::Slice" = type { ptr, i64 }
%"class.rocksdb::InternalKeyComparator" = type { %"class.rocksdb::CompareInterface", %"class.rocksdb::UserComparatorWrapper" }
%"class.rocksdb::CompareInterface" = type { ptr }
%"class.rocksdb::UserComparatorWrapper" = type { ptr }
%"class.rocksdb::PlainTableReader" = type { %"class.rocksdb::TableReader", %"class.rocksdb::InternalKeyComparator", i8, %"class.rocksdb::Status", %"class.rocksdb::PlainTableIndex", i8, i32, i32, ptr, i8, %"class.rocksdb::PlainTableBloomV1", %"struct.rocksdb::PlainTableReaderFileInfo", %"class.rocksdb::Arena", %"class.std::unique_ptr.19", %"class.std::unique_ptr.19", ptr, %"class.std::unique_ptr.27", i64, %"class.std::shared_ptr", [8 x i8] }
%"class.rocksdb::TableReader" = type { ptr }
%"class.rocksdb::Status" = type { i8, i8, i8, i8, i8, i8, %"class.std::unique_ptr" }
%"class.std::unique_ptr" = type { %"struct.std::__uniq_ptr_data" }
%"struct.std::__uniq_ptr_data" = type { %"class.std::__uniq_ptr_impl" }
%"class.std::__uniq_ptr_impl" = type { %"class.std::tuple" }
%"class.std::tuple" = type { %"struct.std::_Tuple_impl" }
%"struct.std::_Tuple_impl" = type { %"struct.std::_Head_base.1" }
%"struct.std::_Head_base.1" = type { ptr }
%"class.rocksdb::PlainTableIndex" = type { i32, i32, i32, ptr, ptr }
%"class.rocksdb::PlainTableBloomV1" = type { i32, i32, i32, ptr }
%"struct.rocksdb::PlainTableReaderFileInfo" = type { i8, %"class.rocksdb::Slice", i32, %"class.std::unique_ptr.2" }
%"class.std::unique_ptr.2" = type { %"struct.std::__uniq_ptr_data.3" }
%"struct.std::__uniq_ptr_data.3" = type { %"class.std::__uniq_ptr_impl.4" }
%"class.std::__uniq_ptr_impl.4" = type { %"class.std::tuple.5" }
%"class.std::tuple.5" = type { %"struct.std::_Tuple_impl.6" }
%"struct.std::_Tuple_impl.6" = type { %"struct.std::_Head_base.9" }
%"struct.std::_Head_base.9" = type { ptr }
%"class.rocksdb::Arena" = type { %"class.rocksdb::Allocator", [8 x i8], [2048 x i8], i64, %"class.std::deque", %"class.std::deque.13", i64, ptr, ptr, i64, i64, i64, ptr }
%"class.rocksdb::Allocator" = type { ptr }
%"class.std::deque" = type { %"class.std::_Deque_base" }
%"class.std::_Deque_base" = type { %"struct.std::_Deque_base<std::unique_ptr<char[]>, std::allocator<std::unique_ptr<char[]>>>::_Deque_impl" }
%"struct.std::_Deque_base<std::unique_ptr<char[]>, std::allocator<std::unique_ptr<char[]>>>::_Deque_impl" = type { %"struct.std::_Deque_base<std::unique_ptr<char[]>, std::allocator<std::unique_ptr<char[]>>>::_Deque_impl_data" }
%"struct.std::_Deque_base<std::unique_ptr<char[]>, std::allocator<std::unique_ptr<char[]>>>::_Deque_impl_data" = type { ptr, i64, %"struct.std::_Deque_iterator", %"struct.std::_Deque_iterator" }
%"struct.std::_Deque_iterator" = type { ptr, ptr, ptr, ptr }
%"class.std::deque.13" = type { %"class.std::_Deque_base.14" }
%"class.std::_Deque_base.14" = type { %"struct.std::_Deque_base<rocksdb::MemMapping, std::allocator<rocksdb::MemMapping>>::_Deque_impl" }
%"struct.std::_Deque_base<rocksdb::MemMapping, std::allocator<rocksdb::MemMapping>>::_Deque_impl" = type { %"struct.std::_Deque_base<rocksdb::MemMapping, std::allocator<rocksdb::MemMapping>>::_Deque_impl_data" }
%"struct.std::_Deque_base<rocksdb::MemMapping, std::allocator<rocksdb::MemMapping>>::_Deque_impl_data" = type { ptr, i64, %"struct.std::_Deque_iterator.18", %"struct.std::_Deque_iterator.18" }
%"struct.std::_Deque_iterator.18" = type { ptr, ptr, ptr, ptr }
%"class.std::unique_ptr.19" = type { %"struct.std::__uniq_ptr_data.20" }
%"struct.std::__uniq_ptr_data.20" = type { %"class.std::__uniq_ptr_impl.21" }
%"class.std::__uniq_ptr_impl.21" = type { %"class.std::tuple.22" }
%"class.std::tuple.22" = type { %"struct.std::_Tuple_impl.23" }
%"struct.std::_Tuple_impl.23" = type { %"struct.std::_Tuple_impl.24", %"struct.std::_Head_base.26" }
%"struct.std::_Tuple_impl.24" = type { %"struct.std::_Head_base.25" }
%"struct.std::_Head_base.25" = type { %"struct.rocksdb::CustomDeleter" }
%"struct.rocksdb::CustomDeleter" = type { ptr }
%"struct.std::_Head_base.26" = type { ptr }
%"class.std::unique_ptr.27" = type { %"struct.std::__uniq_ptr_data.28" }
%"struct.std::__uniq_ptr_data.28" = type { %"class.std::__uniq_ptr_impl.29" }
%"class.std::__uniq_ptr_impl.29" = type { %"class.std::tuple.30" }
%"class.std::tuple.30" = type { %"struct.std::_Tuple_impl.31" }
%"struct.std::_Tuple_impl.31" = type { %"struct.std::_Head_base.34" }
%"struct.std::_Head_base.34" = type { ptr }
%"class.std::shared_ptr" = type { %"class.std::__shared_ptr" }
%"class.std::__shared_ptr" = type { ptr, %"class.std::__shared_count" }
%"class.std::__shared_count" = type { ptr }

@_ZN7rocksdb10perf_levelE = external thread_local global i8, align 1
@_ZN7rocksdb12perf_contextE = external thread_local global %"struct.rocksdb::PerfContext", align 8

; Function Attrs: uwtable
define linkonce_odr hidden noundef ptr @_ZTWN7rocksdb12perf_contextE() #10 comdat {
  br i1 icmp ne (ptr @_ZTHN7rocksdb12perf_contextE, ptr null), label %1, label %2

1:                                                ; preds = %0
  call void @_ZTHN7rocksdb12perf_contextE()
  br label %2

2:                                                ; preds = %1, %0
  %3 = call align 8 ptr @llvm.threadlocal.address.p0(ptr align 8 @_ZN7rocksdb12perf_contextE)
  ret ptr %3
}

; Function Attrs: uwtable
define linkonce_odr hidden noundef ptr @_ZTWN7rocksdb10perf_levelE() #10 comdat {
  br i1 icmp ne (ptr @_ZTHN7rocksdb10perf_levelE, ptr null), label %1, label %2

1:                                                ; preds = %0
  call void @_ZTHN7rocksdb10perf_levelE()
  br label %2

2:                                                ; preds = %1, %0
  %3 = call align 1 ptr @llvm.threadlocal.address.p0(ptr align 1 @_ZN7rocksdb10perf_levelE)
  ret ptr %3
}

; Function Attrs: mustprogress uwtable
define noundef zeroext i1 @_ZNK7rocksdb16PlainTableReader10MatchBloomEj(ptr noundef nonnull align 16 dereferenceable(2536) %this, i32 noundef %hash) unnamed_addr #0 align 2 {
entry:
  %retval = alloca i1, align 1
  %this.addr = alloca ptr, align 8
  %hash.addr = alloca i32, align 4
  store ptr %this, ptr %this.addr, align 8
  store i32 %hash, ptr %hash.addr, align 4
  %this1 = load ptr, ptr %this.addr, align 8
  %enable_bloom_ = getelementptr inbounds %"class.rocksdb::PlainTableReader", ptr %this1, i32 0, i32 9
  %0 = load i8, ptr %enable_bloom_, align 8
  %tobool = trunc i8 %0 to i1
  br i1 %tobool, label %if.end, label %if.then

if.then:                                          ; preds = %entry
  store i1 true, ptr %retval, align 1
  br label %return

if.end:                                           ; preds = %entry
  %bloom_ = getelementptr inbounds %"class.rocksdb::PlainTableReader", ptr %this1, i32 0, i32 10
  %1 = load i32, ptr %hash.addr, align 4
  %call = call noundef zeroext i1 @_ZNK7rocksdb17PlainTableBloomV114MayContainHashEj(ptr noundef nonnull align 8 dereferenceable(24) %bloom_, i32 noundef %1)
  br i1 %call, label %if.then2, label %if.else

if.then2:                                         ; preds = %if.end
  %2 = call ptr @_ZTWN7rocksdb10perf_levelE()
  %3 = load i8, ptr %2, align 1
  %conv = zext i8 %3 to i32
  %cmp = icmp sge i32 %conv, 2
  br i1 %cmp, label %if.then3, label %if.end4

if.then3:                                         ; preds = %if.then2
  %4 = call ptr @_ZTWN7rocksdb12perf_contextE()
  %bloom_sst_hit_count = getelementptr inbounds %"struct.rocksdb::PerfContextBase", ptr %4, i32 0, i32 67
  %5 = load i64, ptr %bloom_sst_hit_count, align 8
  %add = add i64 %5, 1
  store i64 %add, ptr %bloom_sst_hit_count, align 8
  br label %if.end4

if.end4:                                          ; preds = %if.then3, %if.then2
  store i1 true, ptr %retval, align 1
  br label %return

if.else:                                          ; preds = %if.end
  %6 = call ptr @_ZTWN7rocksdb10perf_levelE()
  %7 = load i8, ptr %6, align 1
  %conv5 = zext i8 %7 to i32
  %cmp6 = icmp sge i32 %conv5, 2
  br i1 %cmp6, label %if.then7, label %if.end9

if.then7:                                         ; preds = %if.else
  %8 = call ptr @_ZTWN7rocksdb12perf_contextE()
  %bloom_sst_miss_count = getelementptr inbounds %"struct.rocksdb::PerfContextBase", ptr %8, i32 0, i32 68
  %9 = load i64, ptr %bloom_sst_miss_count, align 8
  %add8 = add i64 %9, 1
  store i64 %add8, ptr %bloom_sst_miss_count, align 8
  br label %if.end9

if.end9:                                          ; preds = %if.then7, %if.else
  store i1 false, ptr %retval, align 1
  br label %return

return:                                           ; preds = %if.end9, %if.end4, %if.then
  %10 = load i1, ptr %retval, align 1
  ret i1 %10
}