; Function Attrs: uwtable
define noundef zeroext i1 @_ZNK7rocksdb16PlainTableReader10MatchBloomEj(ptr noundef nonnull align 16 dereferenceable(2536) %this, i32 noundef %hash) unnamed_addr #0 align 2 {
entry:
  %enable_bloom_ = getelementptr inbounds i8, ptr %this, i64 104
  %0 = load i8, ptr %enable_bloom_, align 8
  %1 = and i8 %0, 1
  %tobool.not = icmp eq i8 %1, 0
  br i1 %tobool.not, label %return, label %if.end

if.end:                                           ; preds = %entry
  %bloom_ = getelementptr inbounds i8, ptr %this, i64 112
  %call = tail call noundef zeroext i1 @_ZNK7rocksdb17PlainTableBloomV114MayContainHashEj(ptr noundef nonnull align 8 dereferenceable(24) %bloom_, i32 noundef %hash)
  br i1 %call, label %if.then2, label %if.else

if.then2:                                         ; preds = %if.end
  br i1 icmp ne (ptr @_ZTHN7rocksdb10perf_levelE, ptr null), label %2, label %_ZTWN7rocksdb10perf_levelE.exit

2:                                                ; preds = %if.then2
  tail call void @_ZTHN7rocksdb10perf_levelE()
  br label %_ZTWN7rocksdb10perf_levelE.exit

_ZTWN7rocksdb10perf_levelE.exit:                  ; preds = %if.then2, %2
  %3 = tail call noundef align 1 ptr @llvm.threadlocal.address.p0(ptr align 1 @_ZN7rocksdb10perf_levelE)
  %4 = load i8, ptr %3, align 1
  %cmp = icmp ugt i8 %4, 1
  br i1 %cmp, label %if.then3, label %return

if.then3:                                         ; preds = %_ZTWN7rocksdb10perf_levelE.exit
  br i1 icmp ne (ptr @_ZTHN7rocksdb12perf_contextE, ptr null), label %return.sink.split.sink.split, label %return.sink.split

if.else:                                          ; preds = %if.end
  br i1 icmp ne (ptr @_ZTHN7rocksdb10perf_levelE, ptr null), label %5, label %_ZTWN7rocksdb10perf_levelE.exit1

5:                                                ; preds = %if.else
  tail call void @_ZTHN7rocksdb10perf_levelE()
  br label %_ZTWN7rocksdb10perf_levelE.exit1

_ZTWN7rocksdb10perf_levelE.exit1:                 ; preds = %if.else, %5
  %6 = tail call noundef align 1 ptr @llvm.threadlocal.address.p0(ptr align 1 @_ZN7rocksdb10perf_levelE)
  %7 = load i8, ptr %6, align 1
  %cmp6 = icmp ugt i8 %7, 1
  br i1 %cmp6, label %if.then7, label %return

if.then7:                                         ; preds = %_ZTWN7rocksdb10perf_levelE.exit1
  br i1 icmp ne (ptr @_ZTHN7rocksdb12perf_contextE, ptr null), label %return.sink.split.sink.split, label %return.sink.split

return.sink.split.sink.split:                     ; preds = %if.then7, %if.then3
  %.sink4.ph = phi i64 [ 536, %if.then3 ], [ 544, %if.then7 ]
  tail call void @_ZTHN7rocksdb12perf_contextE()
  br label %return.sink.split

return.sink.split:                                ; preds = %return.sink.split.sink.split, %if.then7, %if.then3
  %.sink4 = phi i64 [ 536, %if.then3 ], [ 544, %if.then7 ], [ %.sink4.ph, %return.sink.split.sink.split ]
  %retval.0.ph = phi i1 [ true, %if.then3 ], [ false, %if.then7 ], [ %call, %return.sink.split.sink.split ]
  %8 = tail call noundef align 8 ptr @llvm.threadlocal.address.p0(ptr align 8 @_ZN7rocksdb12perf_contextE)
  %bloom_sst_hit_count = getelementptr inbounds i8, ptr %8, i64 %.sink4
  %9 = load i64, ptr %bloom_sst_hit_count, align 8
  %add8 = add i64 %9, 1
  store i64 %add8, ptr %bloom_sst_hit_count, align 8
  br label %return

return:                                           ; preds = %return.sink.split, %_ZTWN7rocksdb10perf_levelE.exit1, %_ZTWN7rocksdb10perf_levelE.exit, %entry
  %retval.0 = phi i1 [ true, %entry ], [ true, %_ZTWN7rocksdb10perf_levelE.exit ], [ false, %_ZTWN7rocksdb10perf_levelE.exit1 ], [ %retval.0.ph, %return.sink.split ]
  ret i1 %retval.0
}